target datalayout = "e-m:e-p270:32:32-p271:32:32-p272:64:64-i64:64-i128:128-f80:128-n8:16:32:64-S128"
target triple = "x86_64-pc-linux-gnu"

%struct._lv_dropdown_t = type { %struct._lv_obj_t, ptr, ptr, ptr, ptr, i32, i32, i32, i32, i8 }
%struct._lv_obj_t = type { ptr, ptr, ptr, ptr, ptr, %struct.lv_area_t, i32, i16, i16 }
%struct.lv_area_t = type { i32, i32, i32, i32 }

; Function Attrs: nounwind uwtable
define void @lv_dropdown_set_options_static(ptr noundef %0, ptr noundef %1) #0 {
  %3 = alloca ptr, align 8
  %4 = alloca ptr, align 8
  %5 = alloca ptr, align 8
  %6 = alloca i32, align 4
  store ptr %0, ptr %3, align 8, !tbaa !3
  store ptr %1, ptr %4, align 8, !tbaa !3
  br label %7

7:                                                ; preds = %2
  br label %8

8:                                                ; preds = %7
  br label %9

9:                                                ; preds = %8
  %10 = load ptr, ptr %4, align 8, !tbaa !3
  %11 = icmp ne ptr %10, null
  br i1 %11, label %16, label %12

12:                                               ; preds = %9
  br label %13

13:                                               ; preds = %12
  br label %14

14:                                               ; preds = %13
  br label %15

15:                                               ; preds = %14, %15
  br label %15

16:                                               ; preds = %9
  br label %17

17:                                               ; preds = %16
  call void @llvm.lifetime.start.p0(i64 8, ptr %5) #5
  %18 = load ptr, ptr %3, align 8, !tbaa !3
  store ptr %18, ptr %5, align 8, !tbaa !3
  %19 = load ptr, ptr %5, align 8, !tbaa !3
  %20 = getelementptr inbounds nuw %struct._lv_dropdown_t, ptr %19, i32 0, i32 5
  store i32 0, ptr %20, align 8, !tbaa !19
  call void @llvm.lifetime.start.p0(i64 4, ptr %6) #5
  store i32 0, ptr %6, align 4, !tbaa !22
  br label %21

21:                                               ; preds = %43, %17
  %22 = load ptr, ptr %4, align 8, !tbaa !3
  %23 = load i32, ptr %6, align 4, !tbaa !22
  %24 = zext i32 %23 to i64
  %25 = getelementptr inbounds nuw i8, ptr %22, i64 %24
  %26 = load i8, ptr %25, align 1, !tbaa !29
  %27 = sext i8 %26 to i32
  %28 = icmp ne i32 %27, 0
  br i1 %28, label %29, label %46

29:                                               ; preds = %21
  %30 = load ptr, ptr %4, align 8, !tbaa !3
  %31 = load i32, ptr %6, align 4, !tbaa !22
  %32 = zext i32 %31 to i64
  %33 = getelementptr inbounds nuw i8, ptr %30, i64 %32
  %34 = load i8, ptr %33, align 1, !tbaa !29
  %35 = sext i8 %34 to i32
  %36 = icmp eq i32 %35, 10
  br i1 %36, label %37, label %42

37:                                               ; preds = %29
  %38 = load ptr, ptr %5, align 8, !tbaa !3
  %39 = getelementptr inbounds nuw %struct._lv_dropdown_t, ptr %38, i32 0, i32 5
  %40 = load i32, ptr %39, align 8, !tbaa !19
  %41 = add i32 %40, 1
  store i32 %41, ptr %39, align 8, !tbaa !19
  br label %42

42:                                               ; preds = %37, %29
  br label %43

43:                                               ; preds = %42
  %44 = load i32, ptr %6, align 4, !tbaa !22
  %45 = add i32 %44, 1
  store i32 %45, ptr %6, align 4, !tbaa !22
  br label %21, !llvm.loop !34

46:                                               ; preds = %21
  %47 = load ptr, ptr %5, align 8, !tbaa !3
  %48 = getelementptr inbounds nuw %struct._lv_dropdown_t, ptr %47, i32 0, i32 5
  %49 = load i32, ptr %48, align 8, !tbaa !19
  %50 = add i32 %49, 1
  store i32 %50, ptr %48, align 8, !tbaa !19
  %51 = load ptr, ptr %5, align 8, !tbaa !3
  %52 = getelementptr inbounds nuw %struct._lv_dropdown_t, ptr %51, i32 0, i32 6
  store i32 0, ptr %52, align 4, !tbaa !16
  %53 = load ptr, ptr %5, align 8, !tbaa !3
  %54 = getelementptr inbounds nuw %struct._lv_dropdown_t, ptr %53, i32 0, i32 7
  store i32 0, ptr %54, align 8, !tbaa !17
  %55 = load ptr, ptr %5, align 8, !tbaa !3
  %56 = getelementptr inbounds nuw %struct._lv_dropdown_t, ptr %55, i32 0, i32 9
  %57 = load i8, ptr %56, align 8
  %58 = lshr i8 %57, 4
  %59 = and i8 %58, 1
  %60 = zext i8 %59 to i32
  %61 = icmp eq i32 %60, 0
  br i1 %61, label %62, label %73

62:                                               ; preds = %46
  %63 = load ptr, ptr %5, align 8, !tbaa !3
  %64 = getelementptr inbounds nuw %struct._lv_dropdown_t, ptr %63, i32 0, i32 4
  %65 = load ptr, ptr %64, align 8, !tbaa !13
  %66 = icmp ne ptr %65, null
  br i1 %66, label %67, label %73

67:                                               ; preds = %62
  %68 = load ptr, ptr %5, align 8, !tbaa !3
  %69 = getelementptr inbounds nuw %struct._lv_dropdown_t, ptr %68, i32 0, i32 4
  %70 = load ptr, ptr %69, align 8, !tbaa !13
  call void @lv_free(ptr noundef %70)
  %71 = load ptr, ptr %5, align 8, !tbaa !3
  %72 = getelementptr inbounds nuw %struct._lv_dropdown_t, ptr %71, i32 0, i32 4
  store ptr null, ptr %72, align 8, !tbaa !13
  br label %73

73:                                               ; preds = %67, %62, %46
  %74 = load ptr, ptr %5, align 8, !tbaa !3
  %75 = getelementptr inbounds nuw %struct._lv_dropdown_t, ptr %74, i32 0, i32 9
  %76 = load i8, ptr %75, align 8
  %77 = and i8 %76, -17
  %78 = or i8 %77, 16
  store i8 %78, ptr %75, align 8
  %79 = load ptr, ptr %4, align 8, !tbaa !3
  %80 = load ptr, ptr %5, align 8, !tbaa !3
  %81 = getelementptr inbounds nuw %struct._lv_dropdown_t, ptr %80, i32 0, i32 4
  store ptr %79, ptr %81, align 8, !tbaa !13
  %82 = load ptr, ptr %3, align 8, !tbaa !3
  call void @lv_obj_invalidate(ptr noundef %82)
  %83 = load ptr, ptr %5, align 8, !tbaa !3
  %84 = getelementptr inbounds nuw %struct._lv_dropdown_t, ptr %83, i32 0, i32 1
  %85 = load ptr, ptr %84, align 8, !tbaa !7
  %86 = icmp ne ptr %85, null
  br i1 %86, label %87, label %91

87:                                               ; preds = %73
  %88 = load ptr, ptr %5, align 8, !tbaa !3
  %89 = getelementptr inbounds nuw %struct._lv_dropdown_t, ptr %88, i32 0, i32 1
  %90 = load ptr, ptr %89, align 8, !tbaa !7
  call void @lv_obj_invalidate(ptr noundef %90)
  br label %91

91:                                               ; preds = %87, %73
  call void @llvm.lifetime.end.p0(i64 4, ptr %6) #5
  call void @llvm.lifetime.end.p0(i64 8, ptr %5) #5
  ret void
}