; Function Attrs: nounwind uwtable
define void @lv_dropdown_set_options_static(ptr noundef %0, ptr noundef %1) local_unnamed_addr #0 {
  %.not = icmp eq ptr %1, null
  br i1 %.not, label %.preheader, label %3

.preheader:                                       ; preds = %2, %.preheader
  br label %.preheader

3:                                                ; preds = %2
  %4 = getelementptr inbounds nuw i8, ptr %0, i64 96
  store i32 0, ptr %4, align 8, !tbaa !18
  br label %5

5:                                                ; preds = %12, %3
  %6 = phi i32 [ 0, %3 ], [ %13, %12 ]
  %.0 = phi i32 [ 0, %3 ], [ %14, %12 ]
  %7 = zext i32 %.0 to i64
  %8 = getelementptr inbounds nuw i8, ptr %1, i64 %7
  %9 = load i8, ptr %8, align 1, !tbaa !19
  switch i8 %9, label %12 [
    i8 0, label %15
    i8 10, label %10
  ]

10:                                               ; preds = %5
  %11 = add i32 %6, 1
  store i32 %11, ptr %4, align 8, !tbaa !18
  br label %12

12:                                               ; preds = %5, %10
  %13 = phi i32 [ %6, %5 ], [ %11, %10 ]
  %14 = add i32 %.0, 1
  br label %5, !llvm.loop !20

15:                                               ; preds = %5
  %16 = add i32 %6, 1
  store i32 %16, ptr %4, align 8, !tbaa !18
  %17 = getelementptr inbounds nuw i8, ptr %0, i64 100
  store i32 0, ptr %17, align 4, !tbaa !15
  %18 = getelementptr inbounds nuw i8, ptr %0, i64 104
  store i32 0, ptr %18, align 8, !tbaa !16
  %19 = getelementptr inbounds nuw i8, ptr %0, i64 112
  %20 = load i8, ptr %19, align 8
  %21 = and i8 %20, 16
  %22 = icmp eq i8 %21, 0
  br i1 %22, label %23, label %27

23:                                               ; preds = %15
  %24 = getelementptr inbounds nuw i8, ptr %0, i64 88
  %25 = load ptr, ptr %24, align 8, !tbaa !12
  %.not26 = icmp eq ptr %25, null
  br i1 %.not26, label %27, label %26

26:                                               ; preds = %23
  tail call void @lv_free(ptr noundef nonnull %25) #7
  %.pre = load i8, ptr %19, align 8
  br label %27

27:                                               ; preds = %26, %23, %15
  %28 = phi i8 [ %.pre, %26 ], [ %20, %23 ], [ %20, %15 ]
  %29 = or i8 %28, 16
  store i8 %29, ptr %19, align 8
  %30 = getelementptr inbounds nuw i8, ptr %0, i64 88
  store ptr %1, ptr %30, align 8, !tbaa !12
  tail call void @lv_obj_invalidate(ptr noundef nonnull %0) #7
  %31 = getelementptr inbounds nuw i8, ptr %0, i64 64
  %32 = load ptr, ptr %31, align 8, !tbaa !3
  %.not27 = icmp eq ptr %32, null
  br i1 %.not27, label %34, label %33

33:                                               ; preds = %27
  tail call void @lv_obj_invalidate(ptr noundef nonnull %32) #7
  br label %34

34:                                               ; preds = %33, %27
  ret void
}